target datalayout = "e-m:e-p270:32:32-p271:32:32-p272:64:64-i64:64-i128:128-f80:128-n8:16:32:64-S128"
target triple = "x86_64-pc-linux-gnu"

%struct.job_record = type { i32, ptr, ptr, ptr, ptr, i16, i32, i32, i32, ptr, i32, ptr, ptr, i16, ptr, double, i64, ptr, ptr, ptr, ptr, ptr, ptr, i32, ptr, i32, i64, i64, i32, i32, ptr, i16, i64, i64, i8, i32, ptr, ptr, ptr, ptr, ptr, ptr, ptr, ptr, i32, ptr, ptr, i32, ptr, i32, ptr, i32, ptr, i32, ptr, ptr, ptr, ptr, ptr, ptr, i32, i16, i64, ptr, ptr, ptr, ptr, %struct.acct_policy_limit_set_t, i16, ptr, ptr, ptr, ptr, ptr, i32, ptr, ptr, ptr, ptr, ptr, i32, i32, ptr, ptr, ptr, i16, ptr, ptr, i8, ptr, ptr, i64, i64, i8, i32, i32, i8, i32, ptr, i32, i64, i32, ptr, ptr, ptr, i8, i16, i64, i32, ptr, ptr, ptr, ptr, ptr, i16, i32, ptr, ptr, ptr, ptr, i32, ptr, i32, i16, i64, ptr, i32, i32, ptr, i64, ptr, ptr, i64, i32, i32, i64, i32, i32, ptr, ptr, ptr, ptr, ptr, ptr, ptr, ptr, ptr, ptr, ptr, ptr, i32, ptr, i16, i16, i16, i16, ptr, i32, i32, i8, i64 }
%struct.acct_policy_limit_set_t = type { i16, i16, ptr }

@slurmctld_tres_cnt = dso_local global i32 0, align 4

; Function Attrs: nounwind uwtable
define internal i32 @_update_job_tres(ptr noundef %0, ptr noundef %1) #0 {
  %3 = alloca ptr, align 8
  %4 = alloca ptr, align 8
  %5 = alloca ptr, align 8
  store ptr %0, ptr %3, align 8
  store ptr %1, ptr %4, align 8
  call void @llvm.lifetime.start.p0(i64 8, ptr %5) #11
  %6 = load ptr, ptr %3, align 8
  store ptr %6, ptr %5, align 8
  %7 = load ptr, ptr %5, align 8
  %8 = getelementptr inbounds nuw %struct.job_record, ptr %7, i32 0, i32 144
  %9 = load ptr, ptr %5, align 8
  %10 = getelementptr inbounds nuw %struct.job_record, ptr %9, i32 0, i32 145
  %11 = load ptr, ptr %10, align 8
  %12 = call i32 @assoc_mgr_set_tres_cnt_array(ptr noundef %8, ptr noundef %11, i64 noundef 0, i1 noundef zeroext true, i1 noundef zeroext false, ptr noundef null)
  %13 = icmp ne i32 %12, 0
  br i1 %13, label %14, label %16

14:                                               ; preds = %2
  %15 = load ptr, ptr %5, align 8
  call void @job_set_req_tres(ptr noundef %15, i1 noundef zeroext true)
  br label %16

16:                                               ; preds = %14, %2
  %17 = load ptr, ptr %5, align 8
  %18 = getelementptr inbounds nuw %struct.job_record, ptr %17, i32 0, i32 147
  %19 = load ptr, ptr %5, align 8
  %20 = getelementptr inbounds nuw %struct.job_record, ptr %19, i32 0, i32 148
  %21 = load ptr, ptr %20, align 8
  %22 = call i32 @assoc_mgr_set_tres_cnt_array(ptr noundef %18, ptr noundef %21, i64 noundef 0, i1 noundef zeroext true, i1 noundef zeroext false, ptr noundef null)
  %23 = icmp ne i32 %22, 0
  br i1 %23, label %24, label %26

24:                                               ; preds = %16
  %25 = load ptr, ptr %5, align 8
  call void @job_set_alloc_tres(ptr noundef %25, i1 noundef zeroext true)
  br label %26

26:                                               ; preds = %24, %16
  %27 = load ptr, ptr %5, align 8
  %28 = getelementptr inbounds nuw %struct.job_record, ptr %27, i32 0, i32 67
  %29 = getelementptr inbounds nuw %struct.acct_policy_limit_set_t, ptr %28, i32 0, i32 2
  %30 = load i32, ptr @slurmctld_tres_cnt, align 4
  call void @update_job_limit_set_tres(ptr noundef %29, i32 noundef %30)
  call void @llvm.lifetime.end.p0(i64 8, ptr %5) #11
  ret i32 0
}