; Function Attrs: nounwind uwtable
define internal noundef i32 @_update_job_tres(ptr noundef %0, ptr readnone captures(none) %1) #6 {
  %3 = getelementptr inbounds nuw i8, ptr %0, i64 1048
  %4 = getelementptr inbounds nuw i8, ptr %0, i64 1056
  %5 = load ptr, ptr %4, align 8
  %6 = tail call i32 @assoc_mgr_set_tres_cnt_array(ptr noundef nonnull %3, ptr noundef %5, i64 noundef 0, i1 noundef zeroext true, i1 noundef zeroext false, ptr noundef null) #19
  %.not = icmp eq i32 %6, 0
  br i1 %.not, label %8, label %7

7:                                                ; preds = %2
  tail call void @job_set_req_tres(ptr noundef nonnull %0, i1 noundef zeroext true) #19
  br label %8

8:                                                ; preds = %7, %2
  %9 = getelementptr inbounds nuw i8, ptr %0, i64 1072
  %10 = getelementptr inbounds nuw i8, ptr %0, i64 1080
  %11 = load ptr, ptr %10, align 8
  %12 = tail call i32 @assoc_mgr_set_tres_cnt_array(ptr noundef nonnull %9, ptr noundef %11, i64 noundef 0, i1 noundef zeroext true, i1 noundef zeroext false, ptr noundef null) #19
  %.not8 = icmp eq i32 %12, 0
  br i1 %.not8, label %14, label %13

13:                                               ; preds = %8
  tail call void @job_set_alloc_tres(ptr noundef nonnull %0, i1 noundef zeroext true) #19
  br label %14

14:                                               ; preds = %13, %8
  %15 = getelementptr inbounds nuw i8, ptr %0, i64 504
  %16 = load i32, ptr @slurmctld_tres_cnt, align 4
  tail call void @update_job_limit_set_tres(ptr noundef nonnull %15, i32 noundef %16) #19
  ret i32 0
}